; Function Attrs: mustprogress uwtable
define internal void @_ZN5faiss12_GLOBAL__N_124AQInvertedListScannerLUTILb0ELNS_17AdditiveQuantizer13Search_type_tE6EE9set_queryEPKf(ptr nocapture noundef nonnull align 8 dereferenceable(148) %0, ptr noundef %1) unnamed_addr #2 align 2 {
  %3 = getelementptr inbounds i8, ptr %0, i64 80
  store ptr %1, ptr %3, align 8
  %4 = getelementptr inbounds i8, ptr %0, i64 40
  %5 = load ptr, ptr %4, align 8
  %6 = getelementptr inbounds i8, ptr %5, i64 256
  %7 = load i8, ptr %6, align 8
  %8 = and i8 %7, 1
  %.not = icmp eq i8 %8, 0
  br i1 %.not, label %9, label %15

9:                                                ; preds = %2
  %10 = getelementptr inbounds i8, ptr %5, i64 8
  %11 = load i32, ptr %10, align 8
  %12 = sext i32 %11 to i64
  %13 = tail call noundef float @_ZN5faiss15fvec_norm_L2sqrEPKfm(ptr noundef %1, i64 noundef %12)
  %14 = getelementptr inbounds i8, ptr %0, i64 144
  store float %13, ptr %14, align 8
  br label %15

15:                                               ; preds = %9, %2
  ret void
}